; Function Attrs: mustprogress uwtable
define hidden void @_ZN7datalog11rel_context22setup_default_relationEv(ptr nocapture noundef nonnull readonly align 8 dereferenceable(432) %this) local_unnamed_addr #3 align 2 {
entry:
  %ref.tmp2 = alloca %class.symbol, align 8
  %m_context = getelementptr inbounds i8, ptr %this, i64 48
  %0 = load ptr, ptr %m_context, align 8
  %call = tail call ptr @_ZNK7datalog7context16default_relationEv(ptr noundef nonnull align 8 dereferenceable(3556) %0)
  call void @_ZN6symbolC1EPKc(ptr noundef nonnull align 8 dereferenceable(8) %ref.tmp2, ptr noundef nonnull @.str.3)
  %1 = load ptr, ptr %ref.tmp2, align 8
  %cmp.i = icmp eq ptr %call, %1
  br i1 %cmp.i, label %if.then, label %if.end

if.then:                                          ; preds = %entry
  %2 = load ptr, ptr %m_context, align 8
  call void @_ZN7datalog7context22set_unbound_compressorEb(ptr noundef nonnull align 8 dereferenceable(3556) %2, i1 noundef zeroext false)
  br label %if.end

if.end:                                           ; preds = %if.then, %entry
  ret void
}